target datalayout = "e-m:e-p270:32:32-p271:32:32-p272:64:64-i64:64-i128:128-f80:128-n8:16:32:64-S128"
target triple = "x86_64-pc-linux-gnu"

%struct.dynhds = type { ptr, i64, i64, i64, i64, i64, i32 }
%struct.dynhds_entry = type { ptr, ptr, i64, i64 }

; Function Attrs: nounwind uwtable
define hidden ptr @Curl_dynhds_get(ptr noundef %0, ptr noundef %1, i64 noundef %2) #0 {
  %4 = alloca ptr, align 8
  %5 = alloca ptr, align 8
  %6 = alloca ptr, align 8
  %7 = alloca i64, align 8
  %8 = alloca i64, align 8
  %9 = alloca i32, align 4
  store ptr %0, ptr %5, align 8, !tbaa !3
  store ptr %1, ptr %6, align 8, !tbaa !27
  store i64 %2, ptr %7, align 8, !tbaa !8
  call void @llvm.lifetime.start.p0(i64 8, ptr %8) #5
  store i64 0, ptr %8, align 8, !tbaa !8
  br label %10

10:                                               ; preds = %48, %3
  %11 = load i64, ptr %8, align 8, !tbaa !8
  %12 = load ptr, ptr %5, align 8, !tbaa !3
  %13 = getelementptr inbounds nuw %struct.dynhds, ptr %12, i32 0, i32 1
  %14 = load i64, ptr %13, align 8, !tbaa !16
  %15 = icmp ult i64 %11, %14
  br i1 %15, label %16, label %51

16:                                               ; preds = %10
  %17 = load ptr, ptr %5, align 8, !tbaa !3
  %18 = getelementptr inbounds nuw %struct.dynhds, ptr %17, i32 0, i32 0
  %19 = load ptr, ptr %18, align 8, !tbaa !10
  %20 = load i64, ptr %8, align 8, !tbaa !8
  %21 = getelementptr inbounds nuw ptr, ptr %19, i64 %20
  %22 = load ptr, ptr %21, align 8, !tbaa !20
  %23 = getelementptr inbounds nuw %struct.dynhds_entry, ptr %22, i32 0, i32 2
  %24 = load i64, ptr %23, align 8, !tbaa !29
  %25 = load i64, ptr %7, align 8, !tbaa !8
  %26 = icmp eq i64 %24, %25
  br i1 %26, label %27, label %47

27:                                               ; preds = %16
  %28 = load ptr, ptr %5, align 8, !tbaa !3
  %29 = getelementptr inbounds nuw %struct.dynhds, ptr %28, i32 0, i32 0
  %30 = load ptr, ptr %29, align 8, !tbaa !10
  %31 = load i64, ptr %8, align 8, !tbaa !8
  %32 = getelementptr inbounds nuw ptr, ptr %30, i64 %31
  %33 = load ptr, ptr %32, align 8, !tbaa !20
  %34 = getelementptr inbounds nuw %struct.dynhds_entry, ptr %33, i32 0, i32 0
  %35 = load ptr, ptr %34, align 8, !tbaa !31
  %36 = load ptr, ptr %6, align 8, !tbaa !27
  %37 = load i64, ptr %7, align 8, !tbaa !8
  %38 = call i32 @curl_strnequal(ptr noundef %35, ptr noundef %36, i64 noundef %37)
  %39 = icmp ne i32 %38, 0
  br i1 %39, label %40, label %47

40:                                               ; preds = %27
  %41 = load ptr, ptr %5, align 8, !tbaa !3
  %42 = getelementptr inbounds nuw %struct.dynhds, ptr %41, i32 0, i32 0
  %43 = load ptr, ptr %42, align 8, !tbaa !10
  %44 = load i64, ptr %8, align 8, !tbaa !8
  %45 = getelementptr inbounds nuw ptr, ptr %43, i64 %44
  %46 = load ptr, ptr %45, align 8, !tbaa !20
  store ptr %46, ptr %4, align 8
  store i32 1, ptr %9, align 4
  br label %52

47:                                               ; preds = %27, %16
  br label %48

48:                                               ; preds = %47
  %49 = load i64, ptr %8, align 8, !tbaa !8
  %50 = add i64 %49, 1
  store i64 %50, ptr %8, align 8, !tbaa !8
  br label %10, !llvm.loop !32

51:                                               ; preds = %10
  store ptr null, ptr %4, align 8
  store i32 1, ptr %9, align 4
  br label %52

52:                                               ; preds = %51, %40
  call void @llvm.lifetime.end.p0(i64 8, ptr %8) #5
  %53 = load ptr, ptr %4, align 8
  ret ptr %53
}