; Function Attrs: nounwind uwtable
define hidden ptr @Curl_dynhds_get(ptr noundef readonly captures(none) %0, ptr noundef %1, i64 noundef %2) local_unnamed_addr #1 {
  %4 = getelementptr inbounds nuw i8, ptr %0, i64 8
  %5 = load i64, ptr %4, align 8, !tbaa !15
  %.not16 = icmp eq i64 %5, 0
  br i1 %.not16, label %.loopexit, label %.lr.ph

.lr.ph:                                           ; preds = %3, %20
  %6 = phi i64 [ %21, %20 ], [ %5, %3 ]
  %.015 = phi i64 [ %22, %20 ], [ 0, %3 ]
  %7 = load ptr, ptr %0, align 8, !tbaa !14
  %8 = getelementptr inbounds nuw ptr, ptr %7, i64 %.015
  %9 = load ptr, ptr %8, align 8, !tbaa !16
  %10 = getelementptr inbounds nuw i8, ptr %9, i64 16
  %11 = load i64, ptr %10, align 8, !tbaa !22
  %12 = icmp eq i64 %11, %2
  br i1 %12, label %13, label %20

13:                                               ; preds = %.lr.ph
  %14 = load ptr, ptr %9, align 8, !tbaa !25
  %15 = tail call i32 @curl_strnequal(ptr noundef %14, ptr noundef %1, i64 noundef %2) #9
  %.not = icmp eq i32 %15, 0
  br i1 %.not, label %._crit_edge, label %16

._crit_edge:                                      ; preds = %13
  %.pre = load i64, ptr %4, align 8, !tbaa !15
  br label %20

16:                                               ; preds = %13
  %17 = load ptr, ptr %0, align 8, !tbaa !14
  %18 = getelementptr inbounds nuw ptr, ptr %17, i64 %.015
  %19 = load ptr, ptr %18, align 8, !tbaa !16
  br label %.loopexit

20:                                               ; preds = %._crit_edge, %.lr.ph
  %21 = phi i64 [ %.pre, %._crit_edge ], [ %6, %.lr.ph ]
  %22 = add nuw i64 %.015, 1
  %23 = icmp ult i64 %22, %21
  br i1 %23, label %.lr.ph, label %.loopexit, !llvm.loop !26

.loopexit:                                        ; preds = %20, %3, %16
  %.012 = phi ptr [ %19, %16 ], [ null, %3 ], [ null, %20 ]
  ret ptr %.012
}